target datalayout = "e-m:e-p270:32:32-p271:32:32-p272:64:64-i64:64-i128:128-f80:128-n8:16:32:64-S128"
target triple = "x86_64-pc-linux-gnu"

%struct.AVChannelLayout = type { i32, i32, %union.anon, ptr }
%union.anon = type { i64 }
%struct.AVFilterChannelLayouts = type { ptr, i32, i8, i8, i32, ptr }

; Function Attrs: nounwind uwtable
define i32 @ff_add_channel_layout(ptr noundef %0, ptr noundef %1) #0 {
  %3 = alloca i32, align 4
  %4 = alloca ptr, align 8
  %5 = alloca ptr, align 8
  %6 = alloca ptr, align 8
  %7 = alloca i32, align 4
  %8 = alloca i32, align 4
  store ptr %0, ptr %4, align 8, !tbaa !52
  store ptr %1, ptr %5, align 8, !tbaa !34
  br label %9

9:                                                ; preds = %2
  call void @llvm.lifetime.start.p0(i64 8, ptr %6) #7
  %10 = load ptr, ptr %4, align 8, !tbaa !52
  %11 = load ptr, ptr %10, align 8, !tbaa !38
  %12 = icmp ne ptr %11, null
  br i1 %12, label %18, label %13

13:                                               ; preds = %9
  %14 = call noalias ptr @av_mallocz(i64 noundef 32)
  %15 = load ptr, ptr %4, align 8, !tbaa !52
  store ptr %14, ptr %15, align 8, !tbaa !38
  %16 = icmp ne ptr %14, null
  br i1 %16, label %18, label %17

17:                                               ; preds = %13
  store i32 -12, ptr %3, align 4
  store i32 1, ptr %7, align 4
  br label %77

18:                                               ; preds = %13, %9
  %19 = load ptr, ptr %4, align 8, !tbaa !52
  %20 = load ptr, ptr %19, align 8, !tbaa !38
  %21 = getelementptr inbounds nuw %struct.AVFilterChannelLayouts, ptr %20, i32 0, i32 0
  %22 = load ptr, ptr %21, align 8, !tbaa !42
  %23 = load ptr, ptr %4, align 8, !tbaa !52
  %24 = load ptr, ptr %23, align 8, !tbaa !38
  %25 = getelementptr inbounds nuw %struct.AVFilterChannelLayouts, ptr %24, i32 0, i32 1
  %26 = load i32, ptr %25, align 8, !tbaa !39
  %27 = add nsw i32 %26, 1
  %28 = sext i32 %27 to i64
  %29 = call ptr @av_realloc_array(ptr noundef %22, i64 noundef %28, i64 noundef 24)
  store ptr %29, ptr %6, align 8, !tbaa !34
  %30 = load ptr, ptr %6, align 8, !tbaa !34
  %31 = icmp ne ptr %30, null
  br i1 %31, label %34, label %32

32:                                               ; preds = %18
  %33 = load ptr, ptr %4, align 8, !tbaa !52
  call void @ff_channel_layouts_unref(ptr noundef %33)
  store i32 -12, ptr %3, align 4
  store i32 1, ptr %7, align 4
  br label %77

34:                                               ; preds = %18
  %35 = load ptr, ptr %6, align 8, !tbaa !34
  %36 = load ptr, ptr %4, align 8, !tbaa !52
  %37 = load ptr, ptr %36, align 8, !tbaa !38
  %38 = getelementptr inbounds nuw %struct.AVFilterChannelLayouts, ptr %37, i32 0, i32 0
  store ptr %35, ptr %38, align 8, !tbaa !42
  br label %39

39:                                               ; preds = %34
  call void @llvm.lifetime.start.p0(i64 4, ptr %8) #7
  %40 = load ptr, ptr %4, align 8, !tbaa !52
  %41 = load ptr, ptr %40, align 8, !tbaa !38
  %42 = getelementptr inbounds nuw %struct.AVFilterChannelLayouts, ptr %41, i32 0, i32 0
  %43 = load ptr, ptr %42, align 8, !tbaa !42
  %44 = load ptr, ptr %4, align 8, !tbaa !52
  %45 = load ptr, ptr %44, align 8, !tbaa !38
  %46 = getelementptr inbounds nuw %struct.AVFilterChannelLayouts, ptr %45, i32 0, i32 1
  %47 = load i32, ptr %46, align 8, !tbaa !39
  %48 = sext i32 %47 to i64
  %49 = getelementptr inbounds %struct.AVChannelLayout, ptr %43, i64 %48
  call void @llvm.memset.p0.i64(ptr align 8 %49, i8 0, i64 24, i1 false)
  %50 = load ptr, ptr %4, align 8, !tbaa !52
  %51 = load ptr, ptr %50, align 8, !tbaa !38
  %52 = getelementptr inbounds nuw %struct.AVFilterChannelLayouts, ptr %51, i32 0, i32 0
  %53 = load ptr, ptr %52, align 8, !tbaa !42
  %54 = load ptr, ptr %4, align 8, !tbaa !52
  %55 = load ptr, ptr %54, align 8, !tbaa !38
  %56 = getelementptr inbounds nuw %struct.AVFilterChannelLayouts, ptr %55, i32 0, i32 1
  %57 = load i32, ptr %56, align 8, !tbaa !39
  %58 = sext i32 %57 to i64
  %59 = getelementptr inbounds %struct.AVChannelLayout, ptr %53, i64 %58
  %60 = load ptr, ptr %5, align 8, !tbaa !34
  %61 = call i32 @av_channel_layout_copy(ptr noundef %59, ptr noundef %60)
  store i32 %61, ptr %8, align 4, !tbaa !21
  %62 = load i32, ptr %8, align 4, !tbaa !21
  %63 = icmp slt i32 %62, 0
  br i1 %63, label %64, label %66

64:                                               ; preds = %39
  %65 = load i32, ptr %8, align 4, !tbaa !21
  store i32 %65, ptr %3, align 4
  store i32 1, ptr %7, align 4
  br label %72

66:                                               ; preds = %39
  %67 = load ptr, ptr %4, align 8, !tbaa !52
  %68 = load ptr, ptr %67, align 8, !tbaa !38
  %69 = getelementptr inbounds nuw %struct.AVFilterChannelLayouts, ptr %68, i32 0, i32 1
  %70 = load i32, ptr %69, align 8, !tbaa !39
  %71 = add nsw i32 %70, 1
  store i32 %71, ptr %69, align 8, !tbaa !39
  store i32 0, ptr %7, align 4
  br label %72

72:                                               ; preds = %66, %64
  call void @llvm.lifetime.end.p0(i64 4, ptr %8) #7
  %73 = load i32, ptr %7, align 4
  switch i32 %73, label %77 [
    i32 0, label %74
  ]

74:                                               ; preds = %72
  br label %75

75:                                               ; preds = %74
  br label %76

76:                                               ; preds = %75
  store i32 0, ptr %7, align 4
  br label %77

77:                                               ; preds = %76, %72, %32, %17
  call void @llvm.lifetime.end.p0(i64 8, ptr %6) #7
  %78 = load i32, ptr %7, align 4
  switch i32 %78, label %83 [
    i32 0, label %79
    i32 1, label %81
  ]

79:                                               ; preds = %77
  br label %80

80:                                               ; preds = %79
  store i32 0, ptr %3, align 4
  br label %81

81:                                               ; preds = %80, %77
  %82 = load i32, ptr %3, align 4
  ret i32 %82

83:                                               ; preds = %77
  unreachable
}