; Function Attrs: nounwind uwtable
define range(i32 -2147483648, 1) i32 @ff_add_channel_layout(ptr noundef captures(address) %0, ptr noundef %1) local_unnamed_addr #3 {
  %3 = load ptr, ptr %0, align 8, !tbaa !33
  %.not = icmp eq ptr %3, null
  br i1 %.not, label %4, label %6

4:                                                ; preds = %2
  %5 = tail call noalias ptr @av_mallocz(i64 noundef 32) #10
  store ptr %5, ptr %0, align 8, !tbaa !33
  %.not21 = icmp eq ptr %5, null
  br i1 %.not21, label %.thread, label %6

6:                                                ; preds = %4, %2
  %7 = phi ptr [ %5, %4 ], [ %3, %2 ]
  %8 = load ptr, ptr %7, align 8, !tbaa !38
  %9 = getelementptr inbounds nuw i8, ptr %7, i64 8
  %10 = load i32, ptr %9, align 8, !tbaa !34
  %11 = add nsw i32 %10, 1
  %12 = sext i32 %11 to i64
  %13 = tail call ptr @av_realloc_array(ptr noundef %8, i64 noundef %12, i64 noundef 24) #10
  %.not22 = icmp eq ptr %13, null
  br i1 %.not22, label %14, label %15

14:                                               ; preds = %6
  tail call void @ff_channel_layouts_unref(ptr noundef nonnull %0)
  br label %.thread

15:                                               ; preds = %6
  %16 = load ptr, ptr %0, align 8, !tbaa !33
  store ptr %13, ptr %16, align 8, !tbaa !38
  %17 = getelementptr inbounds nuw i8, ptr %16, i64 8
  %18 = load i32, ptr %17, align 8, !tbaa !34
  %19 = sext i32 %18 to i64
  %20 = getelementptr inbounds %struct.AVChannelLayout, ptr %13, i64 %19
  tail call void @llvm.memset.p0.i64(ptr noundef nonnull align 8 dereferenceable(24) %20, i8 0, i64 24, i1 false)
  %21 = load ptr, ptr %0, align 8, !tbaa !33
  %22 = load ptr, ptr %21, align 8, !tbaa !38
  %23 = getelementptr inbounds nuw i8, ptr %21, i64 8
  %24 = load i32, ptr %23, align 8, !tbaa !34
  %25 = sext i32 %24 to i64
  %26 = getelementptr inbounds %struct.AVChannelLayout, ptr %22, i64 %25
  %27 = tail call i32 @av_channel_layout_copy(ptr noundef %26, ptr noundef %1) #10
  %28 = icmp slt i32 %27, 0
  br i1 %28, label %.thread, label %29

29:                                               ; preds = %15
  %30 = load ptr, ptr %0, align 8, !tbaa !33
  %31 = getelementptr inbounds nuw i8, ptr %30, i64 8
  %32 = load i32, ptr %31, align 8, !tbaa !34
  %33 = add nsw i32 %32, 1
  store i32 %33, ptr %31, align 8, !tbaa !34
  br label %.thread

.thread:                                          ; preds = %15, %4, %14, %29
  %34 = phi i32 [ 0, %29 ], [ %27, %15 ], [ -12, %4 ], [ -12, %14 ]
  ret i32 %34
}